; Function Attrs: null_pointer_is_valid sspstrong uwtable
define internal fastcc i32 @srvsvc_dissect_NetCharDevQInfo(ptr noundef %0, i32 noundef %1, ptr noundef %2, ptr noundef %3, ptr noundef %4, ptr noundef %5, i32 noundef %6) unnamed_addr #0 {
  %8 = alloca ptr, align 8
  %9 = alloca i32, align 4
  call void @llvm.lifetime.start.p0(i64 8, ptr nonnull %8) #4
  store ptr null, ptr %8, align 8
  call void @llvm.lifetime.start.p0(i64 4, ptr nonnull %9) #4
  %.not = icmp eq ptr %3, null
  br i1 %.not, label %13, label %10

10:                                               ; preds = %7
  %11 = load i32, ptr @ett_srvsvc_srvsvc_NetCharDevQInfo, align 4
  %12 = call ptr @proto_tree_add_subtree(ptr noundef nonnull %3, ptr noundef %0, i32 noundef %1, i32 noundef -1, i32 noundef %11, ptr noundef nonnull %8, ptr noundef nonnull @.str.1278)
  br label %13

13:                                               ; preds = %10, %7
  %.033 = phi ptr [ %12, %10 ], [ null, %7 ]
  %14 = call i32 @dissect_ndr_uint32(ptr noundef %0, i32 noundef %1, ptr noundef %2, ptr noundef %.033, ptr noundef %4, ptr noundef %5, i32 noundef %6, ptr noundef nonnull %9)
  %15 = getelementptr inbounds nuw i8, ptr %4, i64 64
  %16 = load ptr, ptr %15, align 8
  %17 = getelementptr inbounds nuw i8, ptr %16, i64 96
  %18 = load i32, ptr %17, align 8
  %19 = and i32 %18, 1
  %.not35 = icmp eq i32 %19, 0
  %20 = getelementptr inbounds nuw i8, ptr %4, i64 25
  %21 = load i8, ptr %20, align 1, !range !6, !noundef !7
  %22 = trunc nuw i8 %21 to i1
  br i1 %.not35, label %28, label %23

23:                                               ; preds = %13
  %24 = and i32 %14, 7
  %.not37 = icmp eq i32 %24, 0
  %or.cond = select i1 %22, i1 true, i1 %.not37
  br i1 %or.cond, label %33, label %25

25:                                               ; preds = %23
  %26 = and i32 %14, -8
  %27 = add i32 %26, 8
  br label %33

28:                                               ; preds = %13
  %29 = and i32 %14, 3
  %.not36 = icmp eq i32 %29, 0
  %or.cond38 = select i1 %22, i1 true, i1 %.not36
  br i1 %or.cond38, label %33, label %30

30:                                               ; preds = %28
  %31 = and i32 %14, -4
  %32 = add i32 %31, 4
  br label %33

33:                                               ; preds = %28, %30, %23, %25
  %.0 = phi i32 [ %14, %23 ], [ %27, %25 ], [ %14, %28 ], [ %32, %30 ]
  %34 = load i32, ptr %9, align 4
  switch i32 %34, label %41 [
    i32 0, label %35
    i32 1, label %38
  ]

35:                                               ; preds = %33
  %36 = load i32, ptr @hf_srvsvc_srvsvc_NetCharDevQInfo_info0, align 4
  %37 = call i32 @dissect_ndr_embedded_pointer(ptr noundef %0, i32 noundef %.0, ptr noundef %2, ptr noundef %.033, ptr noundef %4, ptr noundef %5, ptr noundef nonnull @srvsvc_dissect_element_NetCharDevQInfo_info0_, i32 noundef 2, ptr noundef nonnull @.str.1279, i32 noundef %36)
  br label %41

38:                                               ; preds = %33
  %39 = load i32, ptr @hf_srvsvc_srvsvc_NetCharDevQInfo_info1, align 4
  %40 = call i32 @dissect_ndr_embedded_pointer(ptr noundef %0, i32 noundef %.0, ptr noundef %2, ptr noundef %.033, ptr noundef %4, ptr noundef %5, ptr noundef nonnull @srvsvc_dissect_element_NetCharDevQInfo_info1_, i32 noundef 2, ptr noundef nonnull @.str.1280, i32 noundef %39)
  br label %41

41:                                               ; preds = %33, %38, %35
  %.1 = phi i32 [ %.0, %33 ], [ %40, %38 ], [ %37, %35 ]
  %42 = load ptr, ptr %8, align 8
  %43 = sub i32 %.1, %1
  call void @proto_item_set_len(ptr noundef %42, i32 noundef %43)
  call void @llvm.lifetime.end.p0(i64 4, ptr nonnull %9) #4
  call void @llvm.lifetime.end.p0(i64 8, ptr nonnull %8) #4
  ret i32 %.1
}